target datalayout = "e-m:e-p270:32:32-p271:32:32-p272:64:64-i64:64-i128:128-f80:128-n8:16:32:64-S128"
target triple = "x86_64-unknown-linux-gnu"

%class.b2Body = type { i32, i16, i32, %struct.b2Transform, %struct.b2Sweep, %struct.b2Vec2, float, %struct.b2Vec2, float, ptr, ptr, ptr, ptr, i32, ptr, ptr, float, float, float, float, float, float, float, float, %struct.b2BodyUserData }
%struct.b2Transform = type { %struct.b2Vec2, %struct.b2Rot }
%struct.b2Rot = type { float, float }
%struct.b2Sweep = type { %struct.b2Vec2, %struct.b2Vec2, %struct.b2Vec2, float, float, float }
%struct.b2Vec2 = type { float, float }
%struct.b2BodyUserData = type { i64 }

; Function Attrs: mustprogress nounwind uwtable
define linkonce_odr hidden noundef float @_Z5b2DotRK6b2Vec2S1_(ptr noundef nonnull align 4 dereferenceable(8) %a, ptr noundef nonnull align 4 dereferenceable(8) %b) #1 comdat {
entry:
  %a.addr = alloca ptr, align 8
  %b.addr = alloca ptr, align 8
  store ptr %a, ptr %a.addr, align 8
  store ptr %b, ptr %b.addr, align 8
  %0 = load ptr, ptr %a.addr, align 8
  %x = getelementptr inbounds %struct.b2Vec2, ptr %0, i32 0, i32 0
  %1 = load float, ptr %x, align 4
  %2 = load ptr, ptr %b.addr, align 8
  %x1 = getelementptr inbounds %struct.b2Vec2, ptr %2, i32 0, i32 0
  %3 = load float, ptr %x1, align 4
  %4 = load ptr, ptr %a.addr, align 8
  %y = getelementptr inbounds %struct.b2Vec2, ptr %4, i32 0, i32 1
  %5 = load float, ptr %y, align 4
  %6 = load ptr, ptr %b.addr, align 8
  %y2 = getelementptr inbounds %struct.b2Vec2, ptr %6, i32 0, i32 1
  %7 = load float, ptr %y2, align 4
  %mul3 = fmul float %5, %7
  %8 = call float @llvm.fmuladd.f32(float %1, float %3, float %mul3)
  ret float %8
}

; Function Attrs: mustprogress uwtable
define linkonce_odr hidden noundef float @_ZNK6b2Body10GetInertiaEv(ptr noundef nonnull align 8 dereferenceable(184) %this) #0 comdat align 2 {
entry:
  %this.addr = alloca ptr, align 8
  store ptr %this, ptr %this.addr, align 8
  %this1 = load ptr, ptr %this.addr, align 8
  %m_I = getelementptr inbounds %class.b2Body, ptr %this1, i32 0, i32 18
  %0 = load float, ptr %m_I, align 8
  %m_mass = getelementptr inbounds %class.b2Body, ptr %this1, i32 0, i32 16
  %1 = load float, ptr %m_mass, align 8
  %m_sweep = getelementptr inbounds %class.b2Body, ptr %this1, i32 0, i32 4
  %localCenter = getelementptr inbounds %struct.b2Sweep, ptr %m_sweep, i32 0, i32 0
  %m_sweep2 = getelementptr inbounds %class.b2Body, ptr %this1, i32 0, i32 4
  %localCenter3 = getelementptr inbounds %struct.b2Sweep, ptr %m_sweep2, i32 0, i32 0
  %call = call noundef float @_Z5b2DotRK6b2Vec2S1_(ptr noundef nonnull align 4 dereferenceable(8) %localCenter, ptr noundef nonnull align 4 dereferenceable(8) %localCenter3)
  %2 = call float @llvm.fmuladd.f32(float %1, float %call, float %0)
  ret float %2
}

; Function Attrs: mustprogress uwtable
define void @_Z18b2AngularStiffnessRfS_ffPK6b2BodyS2_(ptr noundef nonnull align 4 dereferenceable(4) %stiffness, ptr noundef nonnull align 4 dereferenceable(4) %damping, float noundef %frequencyHertz, float noundef %dampingRatio, ptr noundef %bodyA, ptr noundef %bodyB) #0 {
entry:
  %stiffness.addr = alloca ptr, align 8
  %damping.addr = alloca ptr, align 8
  %frequencyHertz.addr = alloca float, align 4
  %dampingRatio.addr = alloca float, align 4
  %bodyA.addr = alloca ptr, align 8
  %bodyB.addr = alloca ptr, align 8
  %IA = alloca float, align 4
  %IB = alloca float, align 4
  %I = alloca float, align 4
  %omega = alloca float, align 4
  store ptr %stiffness, ptr %stiffness.addr, align 8
  store ptr %damping, ptr %damping.addr, align 8
  store float %frequencyHertz, ptr %frequencyHertz.addr, align 4
  store float %dampingRatio, ptr %dampingRatio.addr, align 4
  store ptr %bodyA, ptr %bodyA.addr, align 8
  store ptr %bodyB, ptr %bodyB.addr, align 8
  %0 = load ptr, ptr %bodyA.addr, align 8
  %call = call noundef float @_ZNK6b2Body10GetInertiaEv(ptr noundef nonnull align 8 dereferenceable(184) %0)
  store float %call, ptr %IA, align 4
  %1 = load ptr, ptr %bodyB.addr, align 8
  %call1 = call noundef float @_ZNK6b2Body10GetInertiaEv(ptr noundef nonnull align 8 dereferenceable(184) %1)
  store float %call1, ptr %IB, align 4
  %2 = load float, ptr %IA, align 4
  %cmp = fcmp ogt float %2, 0.000000e+00
  br i1 %cmp, label %land.lhs.true, label %if.else

land.lhs.true:                                    ; preds = %entry
  %3 = load float, ptr %IB, align 4
  %cmp2 = fcmp ogt float %3, 0.000000e+00
  br i1 %cmp2, label %if.then, label %if.else

if.then:                                          ; preds = %land.lhs.true
  %4 = load float, ptr %IA, align 4
  %5 = load float, ptr %IB, align 4
  %mul = fmul float %4, %5
  %6 = load float, ptr %IA, align 4
  %7 = load float, ptr %IB, align 4
  %add = fadd float %6, %7
  %div = fdiv float %mul, %add
  store float %div, ptr %I, align 4
  br label %if.end6

if.else:                                          ; preds = %land.lhs.true, %entry
  %8 = load float, ptr %IA, align 4
  %cmp3 = fcmp ogt float %8, 0.000000e+00
  br i1 %cmp3, label %if.then4, label %if.else5

if.then4:                                         ; preds = %if.else
  %9 = load float, ptr %IA, align 4
  store float %9, ptr %I, align 4
  br label %if.end

if.else5:                                         ; preds = %if.else
  %10 = load float, ptr %IB, align 4
  store float %10, ptr %I, align 4
  br label %if.end

if.end:                                           ; preds = %if.else5, %if.then4
  br label %if.end6

if.end6:                                          ; preds = %if.end, %if.then
  %11 = load float, ptr %frequencyHertz.addr, align 4
  %mul7 = fmul float 0x401921FB60000000, %11
  store float %mul7, ptr %omega, align 4
  %12 = load float, ptr %I, align 4
  %13 = load float, ptr %omega, align 4
  %mul8 = fmul float %12, %13
  %14 = load float, ptr %omega, align 4
  %mul9 = fmul float %mul8, %14
  %15 = load ptr, ptr %stiffness.addr, align 8
  store float %mul9, ptr %15, align 4
  %16 = load float, ptr %I, align 4
  %mul10 = fmul float 2.000000e+00, %16
  %17 = load float, ptr %dampingRatio.addr, align 4
  %mul11 = fmul float %mul10, %17
  %18 = load float, ptr %omega, align 4
  %mul12 = fmul float %mul11, %18
  %19 = load ptr, ptr %damping.addr, align 8
  store float %mul12, ptr %19, align 4
  ret void
}