; Function Attrs: mustprogress nofree norecurse nosync nounwind willreturn memory(argmem: readwrite) uwtable
define void @_Z18b2AngularStiffnessRfS_ffPK6b2BodyS2_(ptr nocapture noundef nonnull writeonly align 4 dereferenceable(4) %stiffness, ptr nocapture noundef nonnull writeonly align 4 dereferenceable(4) %damping, float noundef %frequencyHertz, float noundef %dampingRatio, ptr nocapture noundef readonly %bodyA, ptr nocapture noundef readonly %bodyB) local_unnamed_addr #0 {
entry:
  %m_I.i = getelementptr inbounds i8, ptr %bodyA, i64 152
  %0 = load float, ptr %m_I.i, align 8
  %m_mass.i = getelementptr inbounds i8, ptr %bodyA, i64 144
  %1 = load float, ptr %m_mass.i, align 8
  %m_sweep.i = getelementptr inbounds i8, ptr %bodyA, i64 28
  %2 = load float, ptr %m_sweep.i, align 4
  %y.i.i = getelementptr inbounds i8, ptr %bodyA, i64 32
  %3 = load float, ptr %y.i.i, align 4
  %m_I.i11 = getelementptr inbounds i8, ptr %bodyB, i64 152
  %4 = load float, ptr %m_I.i11, align 8
  %m_mass.i12 = getelementptr inbounds i8, ptr %bodyB, i64 144
  %5 = load float, ptr %m_mass.i12, align 8
  %m_sweep.i13 = getelementptr inbounds i8, ptr %bodyB, i64 28
  %6 = load float, ptr %m_sweep.i13, align 4
  %y.i.i14 = getelementptr inbounds i8, ptr %bodyB, i64 32
  %7 = load float, ptr %y.i.i14, align 4
  %8 = insertelement <2 x float> poison, float %3, i64 0
  %9 = insertelement <2 x float> %8, float %7, i64 1
  %10 = fmul <2 x float> %9, %9
  %11 = insertelement <2 x float> poison, float %2, i64 0
  %12 = insertelement <2 x float> %11, float %6, i64 1
  %13 = tail call <2 x float> @llvm.fmuladd.v2f32(<2 x float> %12, <2 x float> %12, <2 x float> %10)
  %14 = insertelement <2 x float> poison, float %1, i64 0
  %15 = insertelement <2 x float> %14, float %5, i64 1
  %16 = insertelement <2 x float> poison, float %0, i64 0
  %17 = insertelement <2 x float> %16, float %4, i64 1
  %18 = tail call <2 x float> @llvm.fmuladd.v2f32(<2 x float> %15, <2 x float> %13, <2 x float> %17)
  %19 = fcmp ogt <2 x float> %18, zeroinitializer
  %20 = extractelement <2 x i1> %19, i64 0
  %21 = extractelement <2 x i1> %19, i64 1
  %or.cond = and i1 %20, %21
  br i1 %or.cond, label %if.then, label %if.else

if.then:                                          ; preds = %entry
  %22 = extractelement <2 x float> %18, i64 0
  %23 = extractelement <2 x float> %18, i64 1
  %mul = fmul float %22, %23
  %add = fadd float %22, %23
  %div = fdiv float %mul, %add
  br label %if.end6

if.else:                                          ; preds = %entry
  %24 = extractelement <2 x float> %18, i64 0
  %25 = extractelement <2 x float> %18, i64 1
  %call.call1 = select i1 %20, float %24, float %25
  br label %if.end6

if.end6:                                          ; preds = %if.else, %if.then
  %I.0 = phi float [ %div, %if.then ], [ %call.call1, %if.else ]
  %mul7 = fmul float %frequencyHertz, 0x401921FB60000000
  %mul8 = fmul float %mul7, %I.0
  %mul9 = fmul float %mul7, %mul8
  store float %mul9, ptr %stiffness, align 4
  %mul10 = fmul float %I.0, 2.000000e+00
  %mul11 = fmul float %mul10, %dampingRatio
  %mul12 = fmul float %mul7, %mul11
  store float %mul12, ptr %damping, align 4
  ret void
}